target datalayout = "e-m:e-p270:32:32-p271:32:32-p272:64:64-i64:64-i128:128-f80:128-n8:16:32:64-S128"
target triple = "x86_64-pc-linux-gnu"

@hf_mpeg_descr_linkage_transport_stream_id = internal global i32 0, align 4
@hf_mpeg_descr_linkage_original_network_id = internal global i32 0, align 4
@hf_mpeg_descr_linkage_service_id = internal global i32 0, align 4
@hf_mpeg_descr_linkage_linkage_type = internal global i32 0, align 4
@hf_mpeg_descr_linkage_hand_over_type = internal global i32 0, align 4
@hf_mpeg_descr_linkage_reserved1 = internal global i32 0, align 4
@hf_mpeg_descr_linkage_origin_type = internal global i32 0, align 4
@hf_mpeg_descr_linkage_network_id = internal global i32 0, align 4
@hf_mpeg_descr_linkage_initial_service_id = internal global i32 0, align 4
@hf_mpeg_descr_linkage_target_event_id = internal global i32 0, align 4
@hf_mpeg_descr_linkage_target_listed = internal global i32 0, align 4
@hf_mpeg_descr_linkage_event_simulcast = internal global i32 0, align 4
@hf_mpeg_descr_linkage_reserved2 = internal global i32 0, align 4
@hf_mpeg_descr_linkage_private_data_byte = internal global i32 0, align 4
@hf_mpeg_descr_linkage_interactive_network_id = internal global i32 0, align 4
@hf_mpeg_descr_linkage_population_id_loop_count = internal global i32 0, align 4
@hf_mpeg_descr_linkage_population_id = internal global i32 0, align 4
@hf_mpeg_descr_linkage_population_id_base = internal global i32 0, align 4
@hf_mpeg_descr_linkage_population_id_mask = internal global i32 0, align 4
@ett_mpeg_descriptor_linkage_population_id = internal global i32 0, align 4
@.str.752 = private unnamed_addr constant [16 x i8] c"0x%04x / 0x%04x\00", align 1

; Function Attrs: null_pointer_is_valid sspstrong uwtable
define internal void @proto_mpeg_descriptor_dissect_linkage(ptr noundef %0, i32 noundef %1, i32 noundef %2, ptr noundef %3) #1 {
  %5 = alloca ptr, align 8
  %6 = alloca i32, align 4
  %7 = alloca i32, align 4
  %8 = alloca ptr, align 8
  %9 = alloca i8, align 1
  %10 = alloca i8, align 1
  %11 = alloca i8, align 1
  %12 = alloca i32, align 4
  %13 = alloca i32, align 4
  %14 = alloca i16, align 2
  %15 = alloca i16, align 2
  %16 = alloca ptr, align 8
  %17 = alloca ptr, align 8
  %18 = alloca i32, align 4
  store ptr %0, ptr %5, align 8
  store i32 %1, ptr %6, align 4
  store i32 %2, ptr %7, align 4
  store ptr %3, ptr %8, align 8
  call void @llvm.lifetime.start.p0(i64 1, ptr %9) #4
  call void @llvm.lifetime.start.p0(i64 1, ptr %10) #4
  call void @llvm.lifetime.start.p0(i64 1, ptr %11) #4
  call void @llvm.lifetime.start.p0(i64 4, ptr %12) #4
  %19 = load i32, ptr %6, align 4
  %20 = load i32, ptr %7, align 4
  %21 = add i32 %19, %20
  store i32 %21, ptr %12, align 4
  call void @llvm.lifetime.start.p0(i64 4, ptr %13) #4
  call void @llvm.lifetime.start.p0(i64 2, ptr %14) #4
  call void @llvm.lifetime.start.p0(i64 2, ptr %15) #4
  call void @llvm.lifetime.start.p0(i64 8, ptr %16) #4
  call void @llvm.lifetime.start.p0(i64 8, ptr %17) #4
  %22 = load ptr, ptr %8, align 8
  %23 = load i32, ptr @hf_mpeg_descr_linkage_transport_stream_id, align 4
  %24 = load ptr, ptr %5, align 8
  %25 = load i32, ptr %6, align 4
  %26 = call ptr @proto_tree_add_item(ptr noundef %22, i32 noundef %23, ptr noundef %24, i32 noundef %25, i32 noundef 2, i32 noundef 0)
  %27 = load i32, ptr %6, align 4
  %28 = add i32 %27, 2
  store i32 %28, ptr %6, align 4
  %29 = load ptr, ptr %8, align 8
  %30 = load i32, ptr @hf_mpeg_descr_linkage_original_network_id, align 4
  %31 = load ptr, ptr %5, align 8
  %32 = load i32, ptr %6, align 4
  %33 = call ptr @proto_tree_add_item(ptr noundef %29, i32 noundef %30, ptr noundef %31, i32 noundef %32, i32 noundef 2, i32 noundef 0)
  %34 = load i32, ptr %6, align 4
  %35 = add i32 %34, 2
  store i32 %35, ptr %6, align 4
  %36 = load ptr, ptr %8, align 8
  %37 = load i32, ptr @hf_mpeg_descr_linkage_service_id, align 4
  %38 = load ptr, ptr %5, align 8
  %39 = load i32, ptr %6, align 4
  %40 = call ptr @proto_tree_add_item(ptr noundef %36, i32 noundef %37, ptr noundef %38, i32 noundef %39, i32 noundef 2, i32 noundef 0)
  %41 = load i32, ptr %6, align 4
  %42 = add i32 %41, 2
  store i32 %42, ptr %6, align 4
  %43 = load ptr, ptr %8, align 8
  %44 = load i32, ptr @hf_mpeg_descr_linkage_linkage_type, align 4
  %45 = load ptr, ptr %5, align 8
  %46 = load i32, ptr %6, align 4
  %47 = call ptr @proto_tree_add_item(ptr noundef %43, i32 noundef %44, ptr noundef %45, i32 noundef %46, i32 noundef 1, i32 noundef 0)
  %48 = load ptr, ptr %5, align 8
  %49 = load i32, ptr %6, align 4
  %50 = call zeroext i8 @tvb_get_uint8(ptr noundef %48, i32 noundef %49)
  store i8 %50, ptr %9, align 1
  %51 = load i32, ptr %6, align 4
  %52 = add i32 %51, 1
  store i32 %52, ptr %6, align 4
  %53 = load i8, ptr %9, align 1
  %54 = zext i8 %53 to i32
  %55 = icmp eq i32 %54, 8
  br i1 %55, label %56, label %118

56:                                               ; preds = %4
  %57 = load ptr, ptr %8, align 8
  %58 = load i32, ptr @hf_mpeg_descr_linkage_hand_over_type, align 4
  %59 = load ptr, ptr %5, align 8
  %60 = load i32, ptr %6, align 4
  %61 = call ptr @proto_tree_add_item(ptr noundef %57, i32 noundef %58, ptr noundef %59, i32 noundef %60, i32 noundef 1, i32 noundef 0)
  %62 = load ptr, ptr %8, align 8
  %63 = load i32, ptr @hf_mpeg_descr_linkage_reserved1, align 4
  %64 = load ptr, ptr %5, align 8
  %65 = load i32, ptr %6, align 4
  %66 = call ptr @proto_tree_add_item(ptr noundef %62, i32 noundef %63, ptr noundef %64, i32 noundef %65, i32 noundef 1, i32 noundef 0)
  %67 = load ptr, ptr %8, align 8
  %68 = load i32, ptr @hf_mpeg_descr_linkage_origin_type, align 4
  %69 = load ptr, ptr %5, align 8
  %70 = load i32, ptr %6, align 4
  %71 = call ptr @proto_tree_add_item(ptr noundef %67, i32 noundef %68, ptr noundef %69, i32 noundef %70, i32 noundef 1, i32 noundef 0)
  %72 = load ptr, ptr %5, align 8
  %73 = load i32, ptr %6, align 4
  %74 = call zeroext i8 @tvb_get_uint8(ptr noundef %72, i32 noundef %73)
  %75 = zext i8 %74 to i32
  %76 = and i32 %75, 240
  %77 = ashr i32 %76, 4
  %78 = trunc i32 %77 to i8
  store i8 %78, ptr %10, align 1
  %79 = load ptr, ptr %5, align 8
  %80 = load i32, ptr %6, align 4
  %81 = call zeroext i8 @tvb_get_uint8(ptr noundef %79, i32 noundef %80)
  %82 = zext i8 %81 to i32
  %83 = and i32 %82, 1
  %84 = trunc i32 %83 to i8
  store i8 %84, ptr %11, align 1
  %85 = load i32, ptr %6, align 4
  %86 = add i32 %85, 1
  store i32 %86, ptr %6, align 4
  %87 = load i8, ptr %10, align 1
  %88 = zext i8 %87 to i32
  %89 = icmp eq i32 %88, 1
  br i1 %89, label %98, label %90

90:                                               ; preds = %56
  %91 = load i8, ptr %10, align 1
  %92 = zext i8 %91 to i32
  %93 = icmp eq i32 %92, 2
  br i1 %93, label %98, label %94

94:                                               ; preds = %90
  %95 = load i8, ptr %10, align 1
  %96 = zext i8 %95 to i32
  %97 = icmp eq i32 %96, 3
  br i1 %97, label %98, label %106

98:                                               ; preds = %94, %90, %56
  %99 = load ptr, ptr %8, align 8
  %100 = load i32, ptr @hf_mpeg_descr_linkage_network_id, align 4
  %101 = load ptr, ptr %5, align 8
  %102 = load i32, ptr %6, align 4
  %103 = call ptr @proto_tree_add_item(ptr noundef %99, i32 noundef %100, ptr noundef %101, i32 noundef %102, i32 noundef 2, i32 noundef 0)
  %104 = load i32, ptr %6, align 4
  %105 = add i32 %104, 2
  store i32 %105, ptr %6, align 4
  br label %106

106:                                              ; preds = %98, %94
  %107 = load i8, ptr %11, align 1
  %108 = icmp ne i8 %107, 0
  br i1 %108, label %109, label %117

109:                                              ; preds = %106
  %110 = load ptr, ptr %8, align 8
  %111 = load i32, ptr @hf_mpeg_descr_linkage_initial_service_id, align 4
  %112 = load ptr, ptr %5, align 8
  %113 = load i32, ptr %6, align 4
  %114 = call ptr @proto_tree_add_item(ptr noundef %110, i32 noundef %111, ptr noundef %112, i32 noundef %113, i32 noundef 2, i32 noundef 0)
  %115 = load i32, ptr %6, align 4
  %116 = add i32 %115, 2
  store i32 %116, ptr %6, align 4
  br label %117

117:                                              ; preds = %109, %106
  br label %222

118:                                              ; preds = %4
  %119 = load i8, ptr %9, align 1
  %120 = zext i8 %119 to i32
  %121 = icmp eq i32 %120, 13
  br i1 %121, label %122, label %145

122:                                              ; preds = %118
  %123 = load ptr, ptr %8, align 8
  %124 = load i32, ptr @hf_mpeg_descr_linkage_target_event_id, align 4
  %125 = load ptr, ptr %5, align 8
  %126 = load i32, ptr %6, align 4
  %127 = call ptr @proto_tree_add_item(ptr noundef %123, i32 noundef %124, ptr noundef %125, i32 noundef %126, i32 noundef 2, i32 noundef 0)
  %128 = load i32, ptr %6, align 4
  %129 = add i32 %128, 2
  store i32 %129, ptr %6, align 4
  %130 = load ptr, ptr %8, align 8
  %131 = load i32, ptr @hf_mpeg_descr_linkage_target_listed, align 4
  %132 = load ptr, ptr %5, align 8
  %133 = load i32, ptr %6, align 4
  %134 = call ptr @proto_tree_add_item(ptr noundef %130, i32 noundef %131, ptr noundef %132, i32 noundef %133, i32 noundef 1, i32 noundef 0)
  %135 = load ptr, ptr %8, align 8
  %136 = load i32, ptr @hf_mpeg_descr_linkage_event_simulcast, align 4
  %137 = load ptr, ptr %5, align 8
  %138 = load i32, ptr %6, align 4
  %139 = call ptr @proto_tree_add_item(ptr noundef %135, i32 noundef %136, ptr noundef %137, i32 noundef %138, i32 noundef 1, i32 noundef 0)
  %140 = load ptr, ptr %8, align 8
  %141 = load i32, ptr @hf_mpeg_descr_linkage_reserved2, align 4
  %142 = load ptr, ptr %5, align 8
  %143 = load i32, ptr %6, align 4
  %144 = call ptr @proto_tree_add_item(ptr noundef %140, i32 noundef %141, ptr noundef %142, i32 noundef %143, i32 noundef 1, i32 noundef 0)
  br label %221

145:                                              ; preds = %118
  %146 = load i8, ptr %9, align 1
  %147 = zext i8 %146 to i32
  %148 = icmp eq i32 %147, 129
  br i1 %148, label %149, label %220

149:                                              ; preds = %145
  %150 = load i32, ptr %6, align 4
  %151 = add i32 %150, 7
  %152 = load i32, ptr %12, align 4
  %153 = icmp ugt i32 %151, %152
  br i1 %153, label %154, label %155

154:                                              ; preds = %149
  store i32 1, ptr %18, align 4
  br label %237

155:                                              ; preds = %149
  %156 = load ptr, ptr %8, align 8
  %157 = load i32, ptr @hf_mpeg_descr_linkage_interactive_network_id, align 4
  %158 = load ptr, ptr %5, align 8
  %159 = load i32, ptr %6, align 4
  %160 = call ptr @proto_tree_add_item(ptr noundef %156, i32 noundef %157, ptr noundef %158, i32 noundef %159, i32 noundef 2, i32 noundef 0)
  %161 = load i32, ptr %6, align 4
  %162 = add i32 %161, 2
  store i32 %162, ptr %6, align 4
  %163 = load ptr, ptr %5, align 8
  %164 = load i32, ptr %6, align 4
  %165 = call zeroext i8 @tvb_get_uint8(ptr noundef %163, i32 noundef %164)
  %166 = zext i8 %165 to i32
  %167 = add i32 %166, 1
  store i32 %167, ptr %13, align 4
  %168 = load ptr, ptr %8, align 8
  %169 = load i32, ptr @hf_mpeg_descr_linkage_population_id_loop_count, align 4
  %170 = load ptr, ptr %5, align 8
  %171 = load i32, ptr %6, align 4
  %172 = call ptr @proto_tree_add_item(ptr noundef %168, i32 noundef %169, ptr noundef %170, i32 noundef %171, i32 noundef 1, i32 noundef 0)
  %173 = load i32, ptr %6, align 4
  %174 = add i32 %173, 1
  store i32 %174, ptr %6, align 4
  br label %175

175:                                              ; preds = %179, %155
  %176 = load i32, ptr %13, align 4
  %177 = add i32 %176, -1
  store i32 %177, ptr %13, align 4
  %178 = icmp ne i32 %176, 0
  br i1 %178, label %179, label %219

179:                                              ; preds = %175
  %180 = load ptr, ptr %5, align 8
  %181 = load i32, ptr %6, align 4
  %182 = call zeroext i16 @tvb_get_ntohs(ptr noundef %180, i32 noundef %181)
  store i16 %182, ptr %14, align 2
  %183 = load ptr, ptr %5, align 8
  %184 = load i32, ptr %6, align 4
  %185 = add i32 %184, 2
  %186 = call zeroext i16 @tvb_get_ntohs(ptr noundef %183, i32 noundef %185)
  store i16 %186, ptr %15, align 2
  %187 = load ptr, ptr %8, align 8
  %188 = load i32, ptr @hf_mpeg_descr_linkage_population_id, align 4
  %189 = load ptr, ptr %5, align 8
  %190 = load i32, ptr %6, align 4
  %191 = load i16, ptr %14, align 2
  %192 = zext i16 %191 to i32
  %193 = shl i32 %192, 16
  %194 = load i16, ptr %15, align 2
  %195 = zext i16 %194 to i32
  %196 = or i32 %193, %195
  %197 = load i16, ptr %14, align 2
  %198 = zext i16 %197 to i32
  %199 = load i16, ptr %15, align 2
  %200 = zext i16 %199 to i32
  %201 = call ptr (ptr, i32, ptr, i32, i32, i32, ptr, ...) @proto_tree_add_uint_format_value(ptr noundef %187, i32 noundef %188, ptr noundef %189, i32 noundef %190, i32 noundef 4, i32 noundef %196, ptr noundef @.str.752, i32 noundef %198, i32 noundef %200)
  store ptr %201, ptr %16, align 8
  %202 = load ptr, ptr %16, align 8
  %203 = load i32, ptr @ett_mpeg_descriptor_linkage_population_id, align 4
  %204 = call ptr @proto_item_add_subtree(ptr noundef %202, i32 noundef %203)
  store ptr %204, ptr %17, align 8
  %205 = load ptr, ptr %17, align 8
  %206 = load i32, ptr @hf_mpeg_descr_linkage_population_id_base, align 4
  %207 = load ptr, ptr %5, align 8
  %208 = load i32, ptr %6, align 4
  %209 = call ptr @proto_tree_add_item(ptr noundef %205, i32 noundef %206, ptr noundef %207, i32 noundef %208, i32 noundef 2, i32 noundef 0)
  %210 = load i32, ptr %6, align 4
  %211 = add i32 %210, 2
  store i32 %211, ptr %6, align 4
  %212 = load ptr, ptr %17, align 8
  %213 = load i32, ptr @hf_mpeg_descr_linkage_population_id_mask, align 4
  %214 = load ptr, ptr %5, align 8
  %215 = load i32, ptr %6, align 4
  %216 = call ptr @proto_tree_add_item(ptr noundef %212, i32 noundef %213, ptr noundef %214, i32 noundef %215, i32 noundef 2, i32 noundef 0)
  %217 = load i32, ptr %6, align 4
  %218 = add i32 %217, 2
  store i32 %218, ptr %6, align 4
  br label %175, !llvm.loop !12

219:                                              ; preds = %175
  br label %220

220:                                              ; preds = %219, %145
  br label %221

221:                                              ; preds = %220, %122
  br label %222

222:                                              ; preds = %221, %117
  %223 = load i32, ptr %12, align 4
  %224 = load i32, ptr %6, align 4
  %225 = sub i32 %223, %224
  %226 = icmp ugt i32 %225, 0
  br i1 %226, label %227, label %236

227:                                              ; preds = %222
  %228 = load ptr, ptr %8, align 8
  %229 = load i32, ptr @hf_mpeg_descr_linkage_private_data_byte, align 4
  %230 = load ptr, ptr %5, align 8
  %231 = load i32, ptr %6, align 4
  %232 = load i32, ptr %12, align 4
  %233 = load i32, ptr %6, align 4
  %234 = sub i32 %232, %233
  %235 = call ptr @proto_tree_add_item(ptr noundef %228, i32 noundef %229, ptr noundef %230, i32 noundef %231, i32 noundef %234, i32 noundef 0)
  br label %236

236:                                              ; preds = %227, %222
  store i32 0, ptr %18, align 4
  br label %237

237:                                              ; preds = %236, %154
  call void @llvm.lifetime.end.p0(i64 8, ptr %17) #4
  call void @llvm.lifetime.end.p0(i64 8, ptr %16) #4
  call void @llvm.lifetime.end.p0(i64 2, ptr %15) #4
  call void @llvm.lifetime.end.p0(i64 2, ptr %14) #4
  call void @llvm.lifetime.end.p0(i64 4, ptr %13) #4
  call void @llvm.lifetime.end.p0(i64 4, ptr %12) #4
  call void @llvm.lifetime.end.p0(i64 1, ptr %11) #4
  call void @llvm.lifetime.end.p0(i64 1, ptr %10) #4
  call void @llvm.lifetime.end.p0(i64 1, ptr %9) #4
  %238 = load i32, ptr %18, align 4
  switch i32 %238, label %240 [
    i32 0, label %239
    i32 1, label %239
  ]

239:                                              ; preds = %237, %237
  ret void

240:                                              ; preds = %237
  unreachable
}