; Function Attrs: null_pointer_is_valid sspstrong uwtable
define internal fastcc void @proto_mpeg_descriptor_dissect_linkage(ptr noundef %0, i32 noundef %1, i32 noundef range(i32 1, 256) %2, ptr noundef %3) unnamed_addr #1 {
  %5 = add i32 %2, %1
  %6 = load i32, ptr @hf_mpeg_descr_linkage_transport_stream_id, align 4
  %7 = tail call ptr @proto_tree_add_item(ptr noundef %3, i32 noundef %6, ptr noundef %0, i32 noundef %1, i32 noundef 2, i32 noundef 0)
  %8 = add i32 %1, 2
  %9 = load i32, ptr @hf_mpeg_descr_linkage_original_network_id, align 4
  %10 = tail call ptr @proto_tree_add_item(ptr noundef %3, i32 noundef %9, ptr noundef %0, i32 noundef %8, i32 noundef 2, i32 noundef 0)
  %11 = add i32 %1, 4
  %12 = load i32, ptr @hf_mpeg_descr_linkage_service_id, align 4
  %13 = tail call ptr @proto_tree_add_item(ptr noundef %3, i32 noundef %12, ptr noundef %0, i32 noundef %11, i32 noundef 2, i32 noundef 0)
  %14 = add i32 %1, 6
  %15 = load i32, ptr @hf_mpeg_descr_linkage_linkage_type, align 4
  %16 = tail call ptr @proto_tree_add_item(ptr noundef %3, i32 noundef %15, ptr noundef %0, i32 noundef %14, i32 noundef 1, i32 noundef 0)
  %17 = tail call zeroext i8 @tvb_get_uint8(ptr noundef %0, i32 noundef %14)
  %18 = add i32 %1, 7
  switch i8 %17, label %.loopexit [
    i8 8, label %19
    i8 13, label %41
    i8 -127, label %51
  ]

19:                                               ; preds = %4
  %20 = load i32, ptr @hf_mpeg_descr_linkage_hand_over_type, align 4
  %21 = tail call ptr @proto_tree_add_item(ptr noundef %3, i32 noundef %20, ptr noundef %0, i32 noundef %18, i32 noundef 1, i32 noundef 0)
  %22 = load i32, ptr @hf_mpeg_descr_linkage_reserved1, align 4
  %23 = tail call ptr @proto_tree_add_item(ptr noundef %3, i32 noundef %22, ptr noundef %0, i32 noundef %18, i32 noundef 1, i32 noundef 0)
  %24 = load i32, ptr @hf_mpeg_descr_linkage_origin_type, align 4
  %25 = tail call ptr @proto_tree_add_item(ptr noundef %3, i32 noundef %24, ptr noundef %0, i32 noundef %18, i32 noundef 1, i32 noundef 0)
  %26 = tail call zeroext i8 @tvb_get_uint8(ptr noundef %0, i32 noundef %18)
  %27 = lshr i8 %26, 4
  %28 = tail call zeroext i8 @tvb_get_uint8(ptr noundef %0, i32 noundef %18)
  %29 = and i8 %28, 1
  %30 = add i32 %1, 8
  %31 = add nsw i8 %27, -1
  %or.cond5 = icmp ult i8 %31, 3
  br i1 %or.cond5, label %32, label %36

32:                                               ; preds = %19
  %33 = load i32, ptr @hf_mpeg_descr_linkage_network_id, align 4
  %34 = tail call ptr @proto_tree_add_item(ptr noundef %3, i32 noundef %33, ptr noundef %0, i32 noundef %30, i32 noundef 2, i32 noundef 0)
  %35 = add i32 %1, 10
  br label %36

36:                                               ; preds = %19, %32
  %.0 = phi i32 [ %35, %32 ], [ %30, %19 ]
  %.not109 = icmp eq i8 %29, 0
  br i1 %.not109, label %.loopexit, label %37

37:                                               ; preds = %36
  %38 = load i32, ptr @hf_mpeg_descr_linkage_initial_service_id, align 4
  %39 = tail call ptr @proto_tree_add_item(ptr noundef %3, i32 noundef %38, ptr noundef %0, i32 noundef %.0, i32 noundef 2, i32 noundef 0)
  %40 = add i32 %.0, 2
  br label %.loopexit

41:                                               ; preds = %4
  %42 = load i32, ptr @hf_mpeg_descr_linkage_target_event_id, align 4
  %43 = tail call ptr @proto_tree_add_item(ptr noundef %3, i32 noundef %42, ptr noundef %0, i32 noundef %18, i32 noundef 2, i32 noundef 0)
  %44 = add i32 %1, 9
  %45 = load i32, ptr @hf_mpeg_descr_linkage_target_listed, align 4
  %46 = tail call ptr @proto_tree_add_item(ptr noundef %3, i32 noundef %45, ptr noundef %0, i32 noundef %44, i32 noundef 1, i32 noundef 0)
  %47 = load i32, ptr @hf_mpeg_descr_linkage_event_simulcast, align 4
  %48 = tail call ptr @proto_tree_add_item(ptr noundef %3, i32 noundef %47, ptr noundef %0, i32 noundef %44, i32 noundef 1, i32 noundef 0)
  %49 = load i32, ptr @hf_mpeg_descr_linkage_reserved2, align 4
  %50 = tail call ptr @proto_tree_add_item(ptr noundef %3, i32 noundef %49, ptr noundef %0, i32 noundef %44, i32 noundef 1, i32 noundef 0)
  br label %.loopexit

51:                                               ; preds = %4
  %52 = add i32 %1, 14
  %53 = icmp ugt i32 %52, %5
  br i1 %53, label %86, label %54

54:                                               ; preds = %51
  %55 = load i32, ptr @hf_mpeg_descr_linkage_interactive_network_id, align 4
  %56 = tail call ptr @proto_tree_add_item(ptr noundef %3, i32 noundef %55, ptr noundef %0, i32 noundef %18, i32 noundef 2, i32 noundef 0)
  %57 = add i32 %1, 9
  %58 = tail call zeroext i8 @tvb_get_uint8(ptr noundef %0, i32 noundef %57)
  %59 = zext i8 %58 to i32
  %60 = add nuw nsw i32 %59, 1
  %61 = load i32, ptr @hf_mpeg_descr_linkage_population_id_loop_count, align 4
  %62 = tail call ptr @proto_tree_add_item(ptr noundef %3, i32 noundef %61, ptr noundef %0, i32 noundef %57, i32 noundef 1, i32 noundef 0)
  %63 = add i32 %1, 10
  br label %64

64:                                               ; preds = %54, %64
  %.2112 = phi i32 [ %63, %54 ], [ %81, %64 ]
  %.0106111 = phi i32 [ %60, %54 ], [ %65, %64 ]
  %65 = add nsw i32 %.0106111, -1
  %66 = tail call zeroext i16 @tvb_get_ntohs(ptr noundef %0, i32 noundef %.2112)
  %67 = add i32 %.2112, 2
  %68 = tail call zeroext i16 @tvb_get_ntohs(ptr noundef %0, i32 noundef %67)
  %69 = load i32, ptr @hf_mpeg_descr_linkage_population_id, align 4
  %70 = zext i16 %66 to i32
  %71 = shl nuw i32 %70, 16
  %72 = zext i16 %68 to i32
  %73 = or disjoint i32 %71, %72
  %74 = tail call ptr (ptr, i32, ptr, i32, i32, i32, ptr, ...) @proto_tree_add_uint_format_value(ptr noundef %3, i32 noundef %69, ptr noundef %0, i32 noundef %.2112, i32 noundef 4, i32 noundef %73, ptr noundef nonnull @.str.752, i32 noundef %70, i32 noundef %72)
  %75 = load i32, ptr @ett_mpeg_descriptor_linkage_population_id, align 4
  %76 = tail call ptr @proto_item_add_subtree(ptr noundef %74, i32 noundef %75)
  %77 = load i32, ptr @hf_mpeg_descr_linkage_population_id_base, align 4
  %78 = tail call ptr @proto_tree_add_item(ptr noundef %76, i32 noundef %77, ptr noundef %0, i32 noundef %.2112, i32 noundef 2, i32 noundef 0)
  %79 = load i32, ptr @hf_mpeg_descr_linkage_population_id_mask, align 4
  %80 = tail call ptr @proto_tree_add_item(ptr noundef %76, i32 noundef %79, ptr noundef %0, i32 noundef %67, i32 noundef 2, i32 noundef 0)
  %81 = add i32 %.2112, 4
  %.not = icmp eq i32 %65, 0
  br i1 %.not, label %.loopexit, label %64, !llvm.loop !12

.loopexit:                                        ; preds = %64, %4, %41, %36, %37
  %.1 = phi i32 [ %40, %37 ], [ %.0, %36 ], [ %44, %41 ], [ %18, %4 ], [ %81, %64 ]
  %.not110 = icmp eq i32 %5, %.1
  br i1 %.not110, label %86, label %82

82:                                               ; preds = %.loopexit
  %83 = sub i32 %5, %.1
  %84 = load i32, ptr @hf_mpeg_descr_linkage_private_data_byte, align 4
  %85 = tail call ptr @proto_tree_add_item(ptr noundef %3, i32 noundef %84, ptr noundef %0, i32 noundef %.1, i32 noundef %83, i32 noundef 0)
  br label %86

86:                                               ; preds = %.loopexit, %82, %51
  ret void
}